target datalayout = "e-m:e-p270:32:32-p271:32:32-p272:64:64-i64:64-i128:128-f80:128-n8:16:32:64-S128"
target triple = "x86_64-pc-linux-gnu"

%"class.std::__1::ios_base" = type { ptr, i32, i64, i64, i32, i32, ptr, ptr, ptr, ptr, i64, i64, ptr, i64, i64, ptr, i64, i64 }

; Function Attrs: mustprogress nounwind uwtable
define dso_local void @_ZNSt3__18ios_base4initEPv(ptr noundef nonnull align 8 dereferenceable(136) %0, ptr noundef %1) #0 align 2 {
  %3 = alloca ptr, align 8
  %4 = alloca ptr, align 8
  store ptr %0, ptr %3, align 8, !tbaa !27
  store ptr %1, ptr %4, align 8, !tbaa !39
  %5 = load ptr, ptr %3, align 8
  %6 = load ptr, ptr %4, align 8, !tbaa !39
  %7 = getelementptr inbounds nuw %"class.std::__1::ios_base", ptr %5, i32 0, i32 6
  store ptr %6, ptr %7, align 8, !tbaa !61
  %8 = getelementptr inbounds nuw %"class.std::__1::ios_base", ptr %5, i32 0, i32 6
  %9 = load ptr, ptr %8, align 8, !tbaa !61
  %10 = icmp ne ptr %9, null
  %11 = select i1 %10, i32 0, i32 1
  %12 = getelementptr inbounds nuw %"class.std::__1::ios_base", ptr %5, i32 0, i32 4
  store i32 %11, ptr %12, align 8, !tbaa !52
  %13 = getelementptr inbounds nuw %"class.std::__1::ios_base", ptr %5, i32 0, i32 5
  store i32 0, ptr %13, align 4, !tbaa !62
  %14 = getelementptr inbounds nuw %"class.std::__1::ios_base", ptr %5, i32 0, i32 1
  store i32 4098, ptr %14, align 8, !tbaa !63
  %15 = getelementptr inbounds nuw %"class.std::__1::ios_base", ptr %5, i32 0, i32 3
  store i64 0, ptr %15, align 8, !tbaa !64
  %16 = getelementptr inbounds nuw %"class.std::__1::ios_base", ptr %5, i32 0, i32 2
  store i64 6, ptr %16, align 8, !tbaa !65
  %17 = getelementptr inbounds nuw %"class.std::__1::ios_base", ptr %5, i32 0, i32 8
  store ptr null, ptr %17, align 8, !tbaa !38
  %18 = getelementptr inbounds nuw %"class.std::__1::ios_base", ptr %5, i32 0, i32 9
  store ptr null, ptr %18, align 8, !tbaa !40
  %19 = getelementptr inbounds nuw %"class.std::__1::ios_base", ptr %5, i32 0, i32 10
  store i64 0, ptr %19, align 8, !tbaa !31
  %20 = getelementptr inbounds nuw %"class.std::__1::ios_base", ptr %5, i32 0, i32 11
  store i64 0, ptr %20, align 8, !tbaa !58
  %21 = getelementptr inbounds nuw %"class.std::__1::ios_base", ptr %5, i32 0, i32 12
  store ptr null, ptr %21, align 8, !tbaa !48
  %22 = getelementptr inbounds nuw %"class.std::__1::ios_base", ptr %5, i32 0, i32 13
  store i64 0, ptr %22, align 8, !tbaa !50
  %23 = getelementptr inbounds nuw %"class.std::__1::ios_base", ptr %5, i32 0, i32 14
  store i64 0, ptr %23, align 8, !tbaa !47
  %24 = getelementptr inbounds nuw %"class.std::__1::ios_base", ptr %5, i32 0, i32 15
  store ptr null, ptr %24, align 8, !tbaa !54
  %25 = getelementptr inbounds nuw %"class.std::__1::ios_base", ptr %5, i32 0, i32 16
  store i64 0, ptr %25, align 8, !tbaa !56
  %26 = getelementptr inbounds nuw %"class.std::__1::ios_base", ptr %5, i32 0, i32 17
  store i64 0, ptr %26, align 8, !tbaa !53
  %27 = getelementptr inbounds nuw %"class.std::__1::ios_base", ptr %5, i32 0, i32 7
  call void @_ZNSt3__16localeC1Ev(ptr noundef nonnull align 8 dereferenceable(8) %27) #3
  ret void
}