; Function Attrs: mustprogress nounwind uwtable
define dso_local void @_ZNSt3__18ios_base4initEPv(ptr noundef nonnull align 8 dereferenceable(136) initializes((8, 12), (16, 48), (56, 136)) %0, ptr noundef %1) local_unnamed_addr #6 align 2 {
  %3 = getelementptr inbounds nuw i8, ptr %0, i64 40
  store ptr %1, ptr %3, align 8, !tbaa !37
  %.not = icmp eq ptr %1, null
  %4 = zext i1 %.not to i32
  %5 = getelementptr inbounds nuw i8, ptr %0, i64 32
  store i32 %4, ptr %5, align 8, !tbaa !29
  %6 = getelementptr inbounds nuw i8, ptr %0, i64 36
  store i32 0, ptr %6, align 4, !tbaa !30
  %7 = getelementptr inbounds nuw i8, ptr %0, i64 8
  store i32 4098, ptr %7, align 8, !tbaa !38
  %8 = getelementptr inbounds nuw i8, ptr %0, i64 24
  store i64 0, ptr %8, align 8, !tbaa !39
  %9 = getelementptr inbounds nuw i8, ptr %0, i64 16
  store i64 6, ptr %9, align 8, !tbaa !40
  %10 = getelementptr inbounds nuw i8, ptr %0, i64 56
  %11 = getelementptr inbounds nuw i8, ptr %0, i64 48
  tail call void @llvm.memset.p0.i64(ptr noundef nonnull align 8 dereferenceable(80) %10, i8 0, i64 80, i1 false)
  tail call void @_ZNSt3__16localeC1Ev(ptr noundef nonnull align 8 dereferenceable(8) %11) #25
  ret void
}